; Function Attrs: mustprogress nounwind uwtable
define dso_local noundef range(i32 -1, 256) i32 @_ZN4llvm7TGLexer11getNextCharEv(ptr nocapture noundef nonnull align 8 dereferenceable(192) %0) local_unnamed_addr #0 align 2 {
  %2 = alloca %"class.llvm::SMLoc", align 8
  %3 = alloca %"class.llvm::Twine", align 8
  %4 = getelementptr inbounds nuw i8, ptr %0, i64 8
  %5 = load ptr, ptr %4, align 8
  %6 = getelementptr inbounds i8, ptr %5, i64 1
  store ptr %6, ptr %4, align 8
  %7 = load i8, ptr %5, align 1
  switch i8 %7, label %8 [
    i8 0, label %10
    i8 10, label %23
    i8 13, label %23
  ]

8:                                                ; preds = %1
  %9 = zext i8 %7 to i32
  br label %28

10:                                               ; preds = %1
  %11 = getelementptr inbounds nuw i8, ptr %0, i64 16
  %12 = load ptr, ptr %11, align 8
  %13 = getelementptr inbounds i8, ptr %0, i64 24
  %14 = load i64, ptr %13, align 8
  %15 = getelementptr inbounds i8, ptr %12, i64 %14
  %16 = icmp eq ptr %5, %15
  br i1 %16, label %17, label %18

17:                                               ; preds = %10
  store ptr %5, ptr %4, align 8
  br label %28

18:                                               ; preds = %10
  %19 = getelementptr inbounds nuw i8, ptr %0, i64 32
  %20 = load ptr, ptr %19, align 8
  store ptr %20, ptr %2, align 8
  %21 = getelementptr inbounds nuw i8, ptr %3, i64 32
  %22 = getelementptr inbounds nuw i8, ptr %3, i64 33
  store i8 1, ptr %22, align 1
  store ptr @.str.2, ptr %3, align 8
  store i8 3, ptr %21, align 8
  call void @_ZN4llvm10PrintErrorENS_8ArrayRefINS_5SMLocEEERKNS_5TwineE(ptr nonnull %2, i64 1, ptr noundef nonnull align 8 dereferenceable(34) %3) #19
  br label %28

23:                                               ; preds = %1, %1
  %24 = load i8, ptr %6, align 1
  switch i8 %24, label %28 [
    i8 10, label %25
    i8 13, label %25
  ]

25:                                               ; preds = %23, %23
  %.not = icmp eq i8 %24, %7
  br i1 %.not, label %28, label %26

26:                                               ; preds = %25
  %27 = getelementptr inbounds i8, ptr %5, i64 2
  store ptr %27, ptr %4, align 8
  br label %28

28:                                               ; preds = %25, %26, %23, %18, %17, %8
  %.0 = phi i32 [ %9, %8 ], [ -1, %17 ], [ 32, %18 ], [ 10, %23 ], [ 10, %26 ], [ 10, %25 ]
  ret i32 %.0
}